target datalayout = "e-m:e-p270:32:32-p271:32:32-p272:64:64-i64:64-i128:128-f80:128-n8:16:32:64-S128"
target triple = "x86_64-pc-linux-gnu"

@.str = private unnamed_addr constant [39 x i8] c"internal error in RS_isRegis: state %d\00", align 1
@.str.1 = private unnamed_addr constant [8 x i8] c"regis.c\00", align 1
@__func__.RS_isRegis = private unnamed_addr constant [11 x i8] c"RS_isRegis\00", align 1

; Function Attrs: nounwind uwtable
define dso_local zeroext i1 @RS_isRegis(ptr noundef %0) #0 {
  %2 = alloca i1, align 1
  %3 = alloca ptr, align 8
  %4 = alloca i32, align 4
  %5 = alloca ptr, align 8
  %6 = alloca i32, align 4
  store ptr %0, ptr %3, align 8
  call void @llvm.lifetime.start.p0(i64 4, ptr %4) #7
  store i32 4, ptr %4, align 4
  call void @llvm.lifetime.start.p0(i64 8, ptr %5) #7
  %7 = load ptr, ptr %3, align 8
  store ptr %7, ptr %5, align 8
  br label %8

8:                                                ; preds = %80, %1
  %9 = load ptr, ptr %5, align 8
  %10 = load i8, ptr %9, align 1
  %11 = icmp ne i8 %10, 0
  br i1 %11, label %12, label %86

12:                                               ; preds = %8
  %13 = load i32, ptr %4, align 4
  %14 = icmp eq i32 %13, 4
  br i1 %14, label %15, label %29

15:                                               ; preds = %12
  %16 = load ptr, ptr %5, align 8
  %17 = call i32 @t_isalpha(ptr noundef %16)
  %18 = icmp ne i32 %17, 0
  br i1 %18, label %19, label %20

19:                                               ; preds = %15
  br label %28

20:                                               ; preds = %15
  %21 = load ptr, ptr %5, align 8
  %22 = load i8, ptr %21, align 1
  %23 = zext i8 %22 to i32
  %24 = icmp eq i32 %23, 91
  br i1 %24, label %25, label %26

25:                                               ; preds = %20
  store i32 1, ptr %4, align 4
  br label %27

26:                                               ; preds = %20
  store i1 false, ptr %2, align 1
  store i32 1, ptr %6, align 4
  br label %89

27:                                               ; preds = %25
  br label %28

28:                                               ; preds = %27, %19
  br label %80

29:                                               ; preds = %12
  %30 = load i32, ptr %4, align 4
  %31 = icmp eq i32 %30, 1
  br i1 %31, label %32, label %46

32:                                               ; preds = %29
  %33 = load ptr, ptr %5, align 8
  %34 = load i8, ptr %33, align 1
  %35 = zext i8 %34 to i32
  %36 = icmp eq i32 %35, 94
  br i1 %36, label %37, label %38

37:                                               ; preds = %32
  store i32 3, ptr %4, align 4
  br label %45

38:                                               ; preds = %32
  %39 = load ptr, ptr %5, align 8
  %40 = call i32 @t_isalpha(ptr noundef %39)
  %41 = icmp ne i32 %40, 0
  br i1 %41, label %42, label %43

42:                                               ; preds = %38
  store i32 2, ptr %4, align 4
  br label %44

43:                                               ; preds = %38
  store i1 false, ptr %2, align 1
  store i32 1, ptr %6, align 4
  br label %89

44:                                               ; preds = %42
  br label %45

45:                                               ; preds = %44, %37
  br label %79

46:                                               ; preds = %29
  %47 = load i32, ptr %4, align 4
  %48 = icmp eq i32 %47, 2
  br i1 %48, label %52, label %49

49:                                               ; preds = %46
  %50 = load i32, ptr %4, align 4
  %51 = icmp eq i32 %50, 3
  br i1 %51, label %52, label %66

52:                                               ; preds = %49, %46
  %53 = load ptr, ptr %5, align 8
  %54 = call i32 @t_isalpha(ptr noundef %53)
  %55 = icmp ne i32 %54, 0
  br i1 %55, label %56, label %57

56:                                               ; preds = %52
  br label %65

57:                                               ; preds = %52
  %58 = load ptr, ptr %5, align 8
  %59 = load i8, ptr %58, align 1
  %60 = zext i8 %59 to i32
  %61 = icmp eq i32 %60, 93
  br i1 %61, label %62, label %63

62:                                               ; preds = %57
  store i32 4, ptr %4, align 4
  br label %64

63:                                               ; preds = %57
  store i1 false, ptr %2, align 1
  store i32 1, ptr %6, align 4
  br label %89

64:                                               ; preds = %62
  br label %65

65:                                               ; preds = %64, %56
  br label %78

66:                                               ; preds = %49
  br label %67

67:                                               ; preds = %66
  br i1 true, label %68, label %70

68:                                               ; preds = %67
  %69 = call zeroext i1 @errstart_cold(i32 noundef 21, ptr noundef null) #8
  br i1 %69, label %72, label %75

70:                                               ; preds = %67
  %71 = call zeroext i1 @errstart(i32 noundef 21, ptr noundef null)
  br i1 %71, label %72, label %75

72:                                               ; preds = %70, %68
  %73 = load i32, ptr %4, align 4
  %74 = call i32 (ptr, ...) @errmsg_internal(ptr noundef @.str, i32 noundef %73)
  call void @errfinish(ptr noundef @.str.1, i32 noundef 66, ptr noundef @__func__.RS_isRegis)
  br label %75

75:                                               ; preds = %72, %70, %68
  unreachable

76:                                               ; No predecessors!
  br label %77

77:                                               ; preds = %76
  br label %78

78:                                               ; preds = %77, %65
  br label %79

79:                                               ; preds = %78, %45
  br label %80

80:                                               ; preds = %79, %28
  %81 = load ptr, ptr %5, align 8
  %82 = call i32 @pg_mblen(ptr noundef %81)
  %83 = load ptr, ptr %5, align 8
  %84 = sext i32 %82 to i64
  %85 = getelementptr inbounds i8, ptr %83, i64 %84
  store ptr %85, ptr %5, align 8
  br label %8, !llvm.loop !4

86:                                               ; preds = %8
  %87 = load i32, ptr %4, align 4
  %88 = icmp eq i32 %87, 4
  store i1 %88, ptr %2, align 1
  store i32 1, ptr %6, align 4
  br label %89

89:                                               ; preds = %86, %63, %43, %26
  call void @llvm.lifetime.end.p0(i64 8, ptr %5) #7
  call void @llvm.lifetime.end.p0(i64 4, ptr %4) #7
  %90 = load i1, ptr %2, align 1
  ret i1 %90
}