; Function Attrs: nounwind uwtable
define dso_local noundef zeroext i1 @RS_isRegis(ptr noundef %0) local_unnamed_addr #0 {
  %2 = load i8, ptr %0, align 1
  %.not25 = icmp eq i8 %2, 0
  br i1 %.not25, label %.loopexit, label %.lr.ph

.lr.ph:                                           ; preds = %1, %23
  %3 = phi i8 [ %27, %23 ], [ %2, %1 ]
  %.027 = phi ptr [ %26, %23 ], [ %0, %1 ]
  %.01726 = phi i32 [ %.1, %23 ], [ 4, %1 ]
  switch i32 %.01726, label %13 [
    i32 4, label %4
    i32 1, label %9
  ]

4:                                                ; preds = %.lr.ph
  %5 = tail call i32 @t_isalpha(ptr noundef nonnull %.027) #7
  %.not22 = icmp eq i32 %5, 0
  br i1 %.not22, label %6, label %23

6:                                                ; preds = %4
  %7 = load i8, ptr %.027, align 1
  %8 = icmp eq i8 %7, 91
  br i1 %8, label %23, label %.loopexit

9:                                                ; preds = %.lr.ph
  %10 = icmp eq i8 %3, 94
  br i1 %10, label %23, label %11

11:                                               ; preds = %9
  %12 = tail call i32 @t_isalpha(ptr noundef nonnull %.027) #7
  %.not21 = icmp eq i32 %12, 0
  br i1 %.not21, label %.loopexit, label %23

13:                                               ; preds = %.lr.ph
  %14 = and i32 %.01726, -2
  %or.cond = icmp eq i32 %14, 2
  br i1 %or.cond, label %15, label %20

15:                                               ; preds = %13
  %16 = tail call i32 @t_isalpha(ptr noundef nonnull %.027) #7
  %.not20 = icmp eq i32 %16, 0
  br i1 %.not20, label %17, label %23

17:                                               ; preds = %15
  %18 = load i8, ptr %.027, align 1
  %19 = icmp eq i8 %18, 93
  br i1 %19, label %23, label %.loopexit

20:                                               ; preds = %13
  %21 = tail call zeroext i1 @errstart_cold(i32 noundef 21, ptr noundef null) #8
  tail call void @llvm.assume(i1 %21)
  %22 = tail call i32 (ptr, ...) @errmsg_internal(ptr noundef nonnull @.str, i32 noundef 3) #7
  tail call void @errfinish(ptr noundef nonnull @.str.1, i32 noundef 66, ptr noundef nonnull @__func__.RS_isRegis) #7
  unreachable

23:                                               ; preds = %17, %11, %9, %6, %15, %4
  %.1 = phi i32 [ 4, %4 ], [ %.01726, %15 ], [ 1, %6 ], [ 3, %9 ], [ 2, %11 ], [ 4, %17 ]
  %24 = tail call i32 @pg_mblen(ptr noundef nonnull %.027) #7
  %25 = sext i32 %24 to i64
  %26 = getelementptr inbounds i8, ptr %.027, i64 %25
  %27 = load i8, ptr %26, align 1
  %.not = icmp eq i8 %27, 0
  br i1 %.not, label %._crit_edge.loopexit, label %.lr.ph, !llvm.loop !4

._crit_edge.loopexit:                             ; preds = %23
  %28 = icmp eq i32 %.1, 4
  br label %.loopexit

.loopexit:                                        ; preds = %17, %11, %6, %1, %._crit_edge.loopexit
  %.018 = phi i1 [ true, %1 ], [ %28, %._crit_edge.loopexit ], [ false, %6 ], [ false, %11 ], [ false, %17 ]
  ret i1 %.018
}